target datalayout = "e-m:e-p270:32:32-p271:32:32-p272:64:64-i64:64-i128:128-f80:128-n8:16:32:64-S128"
target triple = "x86_64-pc-linux-gnu"

%"class.pbrt::Vector3" = type { %"class.pbrt::Tuple3" }
%"class.pbrt::Tuple3" = type { float, float, float }
%"class.pbrt::Point3fi" = type { %"class.pbrt::Point3" }
%"class.pbrt::Point3" = type { %"class.pbrt::Tuple3.6" }
%"class.pbrt::Tuple3.6" = type { %"class.pbrt::Interval", %"class.pbrt::Interval", %"class.pbrt::Interval" }
%"class.pbrt::Interval" = type { float, float }
%"class.pbrt::Normal3" = type { %"class.pbrt::Tuple3.7" }
%"class.pbrt::Tuple3.7" = type { float, float, float }
%"class.pbrt::Medium" = type { %"class.pbrt::TaggedPointer" }
%"class.pbrt::TaggedPointer" = type { i64 }
%"class.pbrt::LightBase" = type { i32, %"class.pbrt::Transform", %"struct.pbrt::MediumInterface" }
%"class.pbrt::Transform" = type { %"class.pbrt::SquareMatrix.10", %"class.pbrt::SquareMatrix.10" }
%"class.pbrt::SquareMatrix.10" = type { [4 x [4 x float]] }
%"struct.pbrt::MediumInterface" = type { %"class.pbrt::Medium", %"class.pbrt::Medium" }
%"class.pstd::vector.15" = type { %"class.pstd::pmr::polymorphic_allocator.16", ptr, i64, i64 }
%"class.pstd::pmr::polymorphic_allocator.16" = type { ptr }
%"class.pbrt::Point2.31" = type { %"class.pbrt::Tuple2.32" }
%"class.pbrt::Tuple2.32" = type { i32, i32 }
%"class.pbrt::Image" = type { i32, %"class.pbrt::Point2.31", %"class.pstd::vector.33", %"class.pbrt::ColorEncoding", %"class.pstd::vector.36", %"class.pstd::vector.38", %"class.pstd::vector.15" }
%"class.pstd::vector.33" = type { %"class.pstd::pmr::polymorphic_allocator.34", ptr, i64, i64 }
%"class.pstd::pmr::polymorphic_allocator.34" = type { ptr }
%"class.pbrt::ColorEncoding" = type { %"class.pbrt::TaggedPointer.35" }
%"class.pbrt::TaggedPointer.35" = type { i64 }
%"class.pstd::vector.36" = type { %"class.pstd::pmr::polymorphic_allocator.37", ptr, i64, i64 }
%"class.pstd::pmr::polymorphic_allocator.37" = type { ptr }
%"class.pstd::vector.38" = type { %"class.pstd::pmr::polymorphic_allocator.39", ptr, i64, i64 }
%"class.pstd::pmr::polymorphic_allocator.39" = type { ptr }
%"class.pbrt::LightSampleContext" = type { %"class.pbrt::Point3fi", %"class.pbrt::Normal3", %"class.pbrt::Normal3" }
%"class.pbrt::FloatTexture" = type { %"class.pbrt::TaggedPointer.81" }
%"class.pbrt::TaggedPointer.81" = type { i64 }
%"class.pbrt::DiffuseAreaLight" = type { %"class.pbrt::LightBase", %"class.pbrt::Shape", %"class.pbrt::FloatTexture", float, i8, ptr, float, %"class.pbrt::Image", ptr }
%"class.pbrt::Shape" = type { %"class.pbrt::TaggedPointer.80" }
%"class.pbrt::TaggedPointer.80" = type { i64 }
%"struct.pbrt::ShapeSampleContext" = type { %"class.pbrt::Point3fi", %"class.pbrt::Normal3", %"class.pbrt::Normal3", float }
%class.anon.156 = type { ptr, ptr }

; Function Attrs: mustprogress nounwind uwtable
define linkonce_odr dso_local noundef i32 @_ZNK4pbrt13TaggedPointerIJNS_6SphereENS_8CylinderENS_4DiskENS_8TriangleENS_13BilinearPatchENS_5CurveEEE3TagEv(ptr noundef nonnull align 8 dereferenceable(8) %0) #6 comdat align 2 {
  %2 = alloca ptr, align 8
  store ptr %0, ptr %2, align 8, !tbaa !358
  %3 = load ptr, ptr %2, align 8
  %4 = getelementptr inbounds nuw %"class.pbrt::TaggedPointer.80", ptr %3, i32 0, i32 0
  %5 = load i64, ptr %4, align 8, !tbaa !900
  %6 = and i64 %5, -144115188075855872
  %7 = lshr i64 %6, 57
  %8 = trunc i64 %7 to i32
  ret i32 %8
}

; Function Attrs: mustprogress nounwind uwtable
define linkonce_odr dso_local noundef ptr @_ZNK4pbrt13TaggedPointerIJNS_6SphereENS_8CylinderENS_4DiskENS_8TriangleENS_13BilinearPatchENS_5CurveEEE3ptrEv(ptr noundef nonnull align 8 dereferenceable(8) %0) #6 comdat align 2 {
  %2 = alloca ptr, align 8
  store ptr %0, ptr %2, align 8, !tbaa !358
  %3 = load ptr, ptr %2, align 8
  %4 = getelementptr inbounds nuw %"class.pbrt::TaggedPointer.80", ptr %3, i32 0, i32 0
  %5 = load i64, ptr %4, align 8, !tbaa !900
  %6 = and i64 %5, 144115188075855871
  %7 = inttoptr i64 %6 to ptr
  ret ptr %7
}

; Function Attrs: mustprogress uwtable
define linkonce_odr dso_local noundef float @_ZNK4pbrt13TaggedPointerIJNS_6SphereENS_8CylinderENS_4DiskENS_8TriangleENS_13BilinearPatchENS_5CurveEEE8DispatchIRZNKS_5Shape3PDFERKNS_18ShapeSampleContextENS_7Vector3IfEEEUlT_E_EEDcOSF_(ptr noundef nonnull align 8 dereferenceable(8) %0, ptr noundef nonnull align 8 dereferenceable(16) %1) #1 comdat align 2 {
  %3 = alloca ptr, align 8
  %4 = alloca ptr, align 8
  store ptr %0, ptr %3, align 8, !tbaa !358
  store ptr %1, ptr %4, align 8, !tbaa !13
  %5 = load ptr, ptr %3, align 8
  br label %6

6:                                                ; preds = %2
  br label %7

7:                                                ; preds = %6
  %8 = load ptr, ptr %4, align 8, !tbaa !13
  %9 = call noundef ptr @_ZNK4pbrt13TaggedPointerIJNS_6SphereENS_8CylinderENS_4DiskENS_8TriangleENS_13BilinearPatchENS_5CurveEEE3ptrEv(ptr noundef nonnull align 8 dereferenceable(8) %5)
  %10 = call noundef i32 @_ZNK4pbrt13TaggedPointerIJNS_6SphereENS_8CylinderENS_4DiskENS_8TriangleENS_13BilinearPatchENS_5CurveEEE3TagEv(ptr noundef nonnull align 8 dereferenceable(8) %5)
  %11 = sub i32 %10, 1
  %12 = call noundef float @_ZN4pbrt6detail8DispatchIRZNKS_5Shape3PDFERKNS_18ShapeSampleContextENS_7Vector3IfEEEUlT_E_fNS_6SphereENS_8CylinderENS_4DiskENS_8TriangleENS_13BilinearPatchENS_5CurveEEET0_OS8_PKvi(ptr noundef nonnull align 8 dereferenceable(16) %8, ptr noundef %9, i32 noundef %11)
  ret float %12
}

; Function Attrs: inlinehint mustprogress uwtable
define linkonce_odr dso_local noundef float @_ZNK4pbrt5Shape3PDFERKNS_18ShapeSampleContextENS_7Vector3IfEE(ptr noundef nonnull align 8 dereferenceable(8) %0, ptr noundef nonnull align 4 dereferenceable(52) %1, <2 x float> %2, float %3) #13 comdat align 2 {
  %5 = alloca %"class.pbrt::Vector3", align 4
  %6 = alloca { <2 x float>, float }, align 4
  %7 = alloca ptr, align 8
  %8 = alloca ptr, align 8
  %9 = alloca %class.anon.156, align 8
  %10 = getelementptr inbounds nuw { <2 x float>, float }, ptr %6, i32 0, i32 0
  store <2 x float> %2, ptr %10, align 4
  %11 = getelementptr inbounds nuw { <2 x float>, float }, ptr %6, i32 0, i32 1
  store float %3, ptr %11, align 4
  call void @llvm.memcpy.p0.p0.i64(ptr align 4 %5, ptr align 4 %6, i64 12, i1 false)
  store ptr %0, ptr %7, align 8, !tbaa !338
  store ptr %1, ptr %8, align 8, !tbaa !363
  %12 = load ptr, ptr %7, align 8
  call void @llvm.lifetime.start.p0(i64 16, ptr %9) #22
  %13 = getelementptr inbounds nuw %class.anon.156, ptr %9, i32 0, i32 0
  %14 = load ptr, ptr %8, align 8, !tbaa !363
  store ptr %14, ptr %13, align 8, !tbaa !363
  %15 = getelementptr inbounds nuw %class.anon.156, ptr %9, i32 0, i32 1
  store ptr %5, ptr %15, align 8, !tbaa !20
  %16 = call noundef float @_ZNK4pbrt13TaggedPointerIJNS_6SphereENS_8CylinderENS_4DiskENS_8TriangleENS_13BilinearPatchENS_5CurveEEE8DispatchIRZNKS_5Shape3PDFERKNS_18ShapeSampleContextENS_7Vector3IfEEEUlT_E_EEDcOSF_(ptr noundef nonnull align 8 dereferenceable(8) %12, ptr noundef nonnull align 8 dereferenceable(16) %9)
  call void @llvm.lifetime.end.p0(i64 16, ptr %9) #22
  ret float %16
}

; Function Attrs: mustprogress nounwind uwtable
define linkonce_odr dso_local void @_ZN4pbrt18ShapeSampleContextC2ENS_8Point3fiENS_7Normal3IfEES3_f(ptr noundef nonnull align 4 dereferenceable(52) %0, ptr noundef byval(%"class.pbrt::Point3fi") align 8 %1, <2 x float> %2, float %3, <2 x float> %4, float %5, float noundef %6) unnamed_addr #15 comdat align 2 {
  %8 = alloca %"class.pbrt::Normal3", align 4
  %9 = alloca { <2 x float>, float }, align 4
  %10 = alloca %"class.pbrt::Normal3", align 4
  %11 = alloca { <2 x float>, float }, align 4
  %12 = alloca ptr, align 8
  %13 = alloca float, align 4
  %14 = getelementptr inbounds nuw { <2 x float>, float }, ptr %9, i32 0, i32 0
  store <2 x float> %2, ptr %14, align 4
  %15 = getelementptr inbounds nuw { <2 x float>, float }, ptr %9, i32 0, i32 1
  store float %3, ptr %15, align 4
  call void @llvm.memcpy.p0.p0.i64(ptr align 4 %8, ptr align 4 %9, i64 12, i1 false)
  %16 = getelementptr inbounds nuw { <2 x float>, float }, ptr %11, i32 0, i32 0
  store <2 x float> %4, ptr %16, align 4
  %17 = getelementptr inbounds nuw { <2 x float>, float }, ptr %11, i32 0, i32 1
  store float %5, ptr %17, align 4
  call void @llvm.memcpy.p0.p0.i64(ptr align 4 %10, ptr align 4 %11, i64 12, i1 false)
  store ptr %0, ptr %12, align 8, !tbaa !363
  store float %6, ptr %13, align 4, !tbaa !9
  %18 = load ptr, ptr %12, align 8
  %19 = getelementptr inbounds nuw %"struct.pbrt::ShapeSampleContext", ptr %18, i32 0, i32 0
  call void @llvm.memcpy.p0.p0.i64(ptr align 4 %19, ptr align 8 %1, i64 24, i1 false)
  %20 = getelementptr inbounds nuw %"struct.pbrt::ShapeSampleContext", ptr %18, i32 0, i32 1
  call void @llvm.memcpy.p0.p0.i64(ptr align 4 %20, ptr align 4 %8, i64 12, i1 false)
  %21 = getelementptr inbounds nuw %"struct.pbrt::ShapeSampleContext", ptr %18, i32 0, i32 2
  call void @llvm.memcpy.p0.p0.i64(ptr align 4 %21, ptr align 4 %10, i64 12, i1 false)
  %22 = getelementptr inbounds nuw %"struct.pbrt::ShapeSampleContext", ptr %18, i32 0, i32 3
  %23 = load float, ptr %13, align 4, !tbaa !9
  store float %23, ptr %22, align 4, !tbaa !365
  ret void
}

; Function Attrs: mustprogress uwtable
define dso_local noundef float @_ZNK4pbrt16DiffuseAreaLight6PDF_LiENS_18LightSampleContextENS_7Vector3IfEEb(ptr noundef nonnull align 8 dereferenceable(352) %0, ptr noundef byval(%"class.pbrt::LightSampleContext") align 8 %1, <2 x float> %2, float %3, i1 noundef zeroext %4) #12 align 2 {
  %6 = alloca %"class.pbrt::Vector3", align 4
  %7 = alloca { <2 x float>, float }, align 4
  %8 = alloca ptr, align 8
  %9 = alloca i8, align 1
  %10 = alloca %"struct.pbrt::ShapeSampleContext", align 4
  %11 = alloca %"class.pbrt::Point3fi", align 8
  %12 = alloca %"class.pbrt::Normal3", align 4
  %13 = alloca %"class.pbrt::Normal3", align 4
  %14 = alloca { <2 x float>, float }, align 4
  %15 = alloca { <2 x float>, float }, align 4
  %16 = alloca %"class.pbrt::Vector3", align 4
  %17 = alloca { <2 x float>, float }, align 4
  %18 = getelementptr inbounds nuw { <2 x float>, float }, ptr %7, i32 0, i32 0
  store <2 x float> %2, ptr %18, align 4
  %19 = getelementptr inbounds nuw { <2 x float>, float }, ptr %7, i32 0, i32 1
  store float %3, ptr %19, align 4
  call void @llvm.memcpy.p0.p0.i64(ptr align 4 %6, ptr align 4 %7, i64 12, i1 false)
  store ptr %0, ptr %8, align 8, !tbaa !336
  %20 = zext i1 %4 to i8
  store i8 %20, ptr %9, align 1, !tbaa !143
  %21 = load ptr, ptr %8, align 8
  call void @llvm.lifetime.start.p0(i64 52, ptr %10) #22
  %22 = getelementptr inbounds nuw %"class.pbrt::LightSampleContext", ptr %1, i32 0, i32 0
  call void @llvm.memcpy.p0.p0.i64(ptr align 4 %11, ptr align 8 %22, i64 24, i1 false)
  %23 = getelementptr inbounds nuw %"class.pbrt::LightSampleContext", ptr %1, i32 0, i32 1
  call void @llvm.memcpy.p0.p0.i64(ptr align 4 %12, ptr align 8 %23, i64 12, i1 false)
  %24 = getelementptr inbounds nuw %"class.pbrt::LightSampleContext", ptr %1, i32 0, i32 2
  call void @llvm.memcpy.p0.p0.i64(ptr align 4 %13, ptr align 4 %24, i64 12, i1 false)
  call void @llvm.memcpy.p0.p0.i64(ptr align 4 %14, ptr align 4 %12, i64 12, i1 false)
  %25 = getelementptr inbounds nuw { <2 x float>, float }, ptr %14, i32 0, i32 0
  %26 = load <2 x float>, ptr %25, align 4
  %27 = getelementptr inbounds nuw { <2 x float>, float }, ptr %14, i32 0, i32 1
  %28 = load float, ptr %27, align 4
  call void @llvm.memcpy.p0.p0.i64(ptr align 4 %15, ptr align 4 %13, i64 12, i1 false)
  %29 = getelementptr inbounds nuw { <2 x float>, float }, ptr %15, i32 0, i32 0
  %30 = load <2 x float>, ptr %29, align 4
  %31 = getelementptr inbounds nuw { <2 x float>, float }, ptr %15, i32 0, i32 1
  %32 = load float, ptr %31, align 4
  call void @_ZN4pbrt18ShapeSampleContextC2ENS_8Point3fiENS_7Normal3IfEES3_f(ptr noundef nonnull align 4 dereferenceable(52) %10, ptr noundef byval(%"class.pbrt::Point3fi") align 8 %11, <2 x float> %26, float %28, <2 x float> %30, float %32, float noundef 0.000000e+00)
  %33 = getelementptr inbounds nuw %"class.pbrt::DiffuseAreaLight", ptr %21, i32 0, i32 1
  call void @llvm.memcpy.p0.p0.i64(ptr align 4 %16, ptr align 4 %6, i64 12, i1 false)
  call void @llvm.memcpy.p0.p0.i64(ptr align 4 %17, ptr align 4 %16, i64 12, i1 false)
  %34 = getelementptr inbounds nuw { <2 x float>, float }, ptr %17, i32 0, i32 0
  %35 = load <2 x float>, ptr %34, align 4
  %36 = getelementptr inbounds nuw { <2 x float>, float }, ptr %17, i32 0, i32 1
  %37 = load float, ptr %36, align 4
  %38 = call noundef float @_ZNK4pbrt5Shape3PDFERKNS_18ShapeSampleContextENS_7Vector3IfEE(ptr noundef nonnull align 8 dereferenceable(8) %33, ptr noundef nonnull align 4 dereferenceable(52) %10, <2 x float> %35, float %37)
  call void @llvm.lifetime.end.p0(i64 52, ptr %10) #22
  ret float %38
}