; Function Attrs: mustprogress uwtable
define dso_local noundef float @_ZNK4pbrt16DiffuseAreaLight6PDF_LiENS_18LightSampleContextENS_7Vector3IfEEb(ptr noundef nonnull readonly align 8 captures(none) dereferenceable(352) %0, ptr noundef readonly byval(%"class.pbrt::LightSampleContext") align 8 captures(none) %1, <2 x float> %2, float %3, i1 noundef zeroext %4) local_unnamed_addr #14 align 2 {
  %6 = alloca %"class.pbrt::Vector3", align 8
  %7 = alloca %class.anon.156, align 8
  %8 = alloca %"struct.pbrt::ShapeSampleContext", align 8
  call void @llvm.lifetime.start.p0(i64 52, ptr nonnull %8) #38
  call void @llvm.memcpy.p0.p0.i64(ptr noundef nonnull align 8 dereferenceable(24) %8, ptr noundef nonnull align 8 dereferenceable(24) %1, i64 24, i1 false)
  %9 = getelementptr inbounds nuw i8, ptr %1, i64 24
  %.sroa.09.0.copyload = load <2 x float>, ptr %9, align 8
  %.sroa.210.0..sroa_idx = getelementptr inbounds nuw i8, ptr %1, i64 32
  %.sroa.210.0.copyload = load float, ptr %.sroa.210.0..sroa_idx, align 8
  %10 = getelementptr inbounds nuw i8, ptr %1, i64 36
  %.sroa.07.0.copyload = load <2 x float>, ptr %10, align 4
  %.sroa.28.0..sroa_idx = getelementptr inbounds nuw i8, ptr %1, i64 44
  %.sroa.28.0.copyload = load float, ptr %.sroa.28.0..sroa_idx, align 4
  %11 = getelementptr inbounds nuw i8, ptr %8, i64 24
  store <2 x float> %.sroa.09.0.copyload, ptr %11, align 8
  %.sroa.27.0..sroa_idx.i = getelementptr inbounds nuw i8, ptr %8, i64 32
  store float %.sroa.210.0.copyload, ptr %.sroa.27.0..sroa_idx.i, align 8
  %12 = getelementptr inbounds nuw i8, ptr %8, i64 36
  store <2 x float> %.sroa.07.0.copyload, ptr %12, align 4
  %.sroa.23.0..sroa_idx.i = getelementptr inbounds nuw i8, ptr %8, i64 44
  store float %.sroa.28.0.copyload, ptr %.sroa.23.0..sroa_idx.i, align 4
  %13 = getelementptr inbounds nuw i8, ptr %8, i64 48
  store float 0.000000e+00, ptr %13, align 8, !tbaa !390
  %14 = getelementptr inbounds nuw i8, ptr %0, i64 152
  call void @llvm.lifetime.start.p0(i64 12, ptr nonnull %6)
  store <2 x float> %2, ptr %6, align 8
  %.sroa.2.0..sroa_idx.i = getelementptr inbounds nuw i8, ptr %6, i64 8
  store float %3, ptr %.sroa.2.0..sroa_idx.i, align 8
  call void @llvm.lifetime.start.p0(i64 16, ptr nonnull %7) #38
  store ptr %8, ptr %7, align 8, !tbaa !400
  %15 = getelementptr inbounds nuw i8, ptr %7, i64 8
  store ptr %6, ptr %15, align 8, !tbaa !415
  %16 = load i64, ptr %14, align 8, !tbaa !365
  %17 = and i64 %16, 144115188075855871
  %18 = inttoptr i64 %17 to ptr
  %19 = lshr i64 %16, 57
  %20 = trunc nuw nsw i64 %19 to i32
  %21 = add nsw i32 %20, -1
  %22 = call noundef float @_ZN4pbrt6detail8DispatchIRZNKS_5Shape3PDFERKNS_18ShapeSampleContextENS_7Vector3IfEEEUlT_E_fNS_6SphereENS_8CylinderENS_4DiskENS_8TriangleENS_13BilinearPatchENS_5CurveEEET0_OS8_PKvi(ptr noundef nonnull align 8 dereferenceable(16) %7, ptr noundef %18, i32 noundef %21)
  call void @llvm.lifetime.end.p0(i64 16, ptr nonnull %7) #38
  call void @llvm.lifetime.end.p0(i64 12, ptr nonnull %6)
  call void @llvm.lifetime.end.p0(i64 52, ptr nonnull %8) #38
  ret float %22
}